target datalayout = "e-m:e-p270:32:32-p271:32:32-p272:64:64-i64:64-i128:128-f80:128-n8:16:32:64-S128"
target triple = "x86_64-pc-linux-gnu"

%struct.AVCodecContext = type { ptr, i32, i32, ptr, i32, i32, ptr, ptr, ptr, i64, i32, i32, ptr, i32, %struct.AVRational, %struct.AVRational, %struct.AVRational, i32, i32, i32, i32, i32, %struct.AVRational, i32, i32, i32, i32, i32, i32, i32, i32, i32, i32, i32, ptr, ptr, i32, float, float, float, float, float, float, float, float, float, i32, i32, i32, i32, i32, i32, i32, i32, i32, i32, i32, i32, ptr, ptr, ptr, i32, i32, i32, i32, i32, i32, i32, i32, i32, i32, %struct.AVChannelLayout, i32, i32, i32, i32, i32, i32, i32, i32, ptr, i32, i32, i32, float, float, i32, i32, i32, i32, i32, ptr, i64, i64, float, float, i32, i32, ptr, ptr, i32, i32, i32, i32, i32, ptr, ptr, ptr, ptr, i32, i32, [8 x i64], i32, i32, i32, i32, i32, i32, i32, ptr, ptr, i32, i32, i32, i32, i32, i32, i32, i32, i32, i32, ptr, ptr, i32, i32, ptr, ptr, ptr, ptr, i32, i32, i64, i32, i32, i64, ptr, i64, ptr, i32, ptr, i32 }
%struct.AVRational = type { i32, i32 }
%struct.AVChannelLayout = type { i32, i32, %union.anon, ptr }
%union.anon = type { i64 }
%struct.H264Context = type { ptr, ptr, %struct.VideoDSPContext, %struct.H264DSPContext, %struct.H264ChromaContext, %struct.H264QpelContext, %struct.H274FilmGrainDatabase, [36 x %struct.H264Picture], ptr, %struct.H264Picture, %struct.H264Picture, ptr, i32, i32, %struct.H2645Packet, i32, i32, i32, i32, i32, i32, i32, i32, i32, i32, i32, i32, i32, i32, i32, i32, i32, ptr, %struct.H264PredContext, ptr, [96 x i32], ptr, ptr, i32, ptr, i32, i32, i32, ptr, ptr, ptr, [2 x ptr], ptr, [16 x i8], [16 x i8], [64 x i8], [64 x i8], [16 x i8], [64 x i8], [64 x i8], [16 x i8], [64 x i8], [64 x i8], [16 x i8], [64 x i8], [64 x i8], i32, i32, i32, i32, i32, i32, i32, i32, i32, i32, i32, i32, %struct.H264ParamSets, ptr, %struct.H264POCContext, [2 x %struct.H264Ref], [32 x ptr], [32 x ptr], [18 x ptr], [16 x i32], ptr, i32, i32, [67 x %struct.MMCO], i32, i32, i32, i32, i32, i32, i32, i32, i32, i32, i32, i32, i32, i32, i32, [32 x i16], i32, i32, i32, %struct.ERContext, ptr, %struct.H264SEIContext, ptr, ptr, ptr, ptr, ptr, [32 x [2 x [64 x i32]]], i32, i32, i32 }
%struct.VideoDSPContext = type { ptr, ptr }
%struct.H264DSPContext = type { [4 x ptr], [4 x ptr], ptr, ptr, ptr, ptr, ptr, ptr, ptr, ptr, ptr, ptr, ptr, ptr, ptr, ptr, ptr, ptr, ptr, ptr, ptr, ptr, ptr, ptr, ptr, ptr, ptr, ptr }
%struct.H264ChromaContext = type { [4 x ptr], [4 x ptr] }
%struct.H264QpelContext = type { [4 x [16 x ptr]], [4 x [16 x ptr]] }
%struct.H274FilmGrainDatabase = type { [13 x [13 x [64 x [64 x i8]]]], [13 x i16], [64 x [64 x i16]] }
%struct.H264Picture = type { ptr, %struct.ThreadFrame, ptr, ptr, ptr, [2 x ptr], [2 x ptr], ptr, ptr, ptr, [2 x ptr], [2 x i32], i32, i32, i32, i32, i32, [2 x [2 x [32 x i32]]], [2 x [2 x i32]], i32, i32, i32, i32, i32, i32, i32, ptr, i32, i32, i32, ptr, i32 }
%struct.ThreadFrame = type { ptr, [2 x ptr], ptr }
%struct.H2645Packet = type { ptr, %struct.H2645RBSP, i32, i32, i32 }
%struct.H2645RBSP = type { ptr, ptr, i32, i32 }
%struct.H264PredContext = type { [15 x ptr], [12 x ptr], [11 x ptr], [9 x ptr], [2 x ptr], [2 x ptr], [2 x ptr], [3 x ptr], [3 x ptr] }
%struct.H264ParamSets = type { [32 x ptr], [256 x ptr], ptr, ptr, [2 x i32] }
%struct.H264POCContext = type { i32, i32, i32, [2 x i32], i32, i32, i32, i32, i32, i32 }
%struct.H264Ref = type { [3 x ptr], [3 x i32], i32, i32, i32, ptr }
%struct.MMCO = type { i32, i32, i32 }
%struct.ERContext = type { ptr, ptr, i32, ptr, i32, i32, i32, i64, i64, i32, i32, ptr, ptr, [3 x ptr], ptr, ptr, [2 x [4 x [2 x i32]]], %struct.ERPicture, %struct.ERPicture, %struct.ERPicture, [2 x ptr], [2 x ptr], i16, i16, i32, i32, ptr, ptr }
%struct.ERPicture = type { ptr, ptr, ptr, [2 x ptr], [2 x ptr], ptr, i32 }
%struct.H264SEIContext = type { %struct.H2645SEI, %struct.H264SEIPictureTiming, %struct.H264SEIRecoveryPoint, %struct.H264SEIBufferingPeriod, %struct.H264SEIGreenMetaData }
%struct.H2645SEI = type { %struct.H2645SEIA53Caption, %struct.H2645SEIAFD, %struct.HEVCSEIDynamicHDRPlus, %struct.HEVCSEIDynamicHDRVivid, %struct.HEVCSEILCEVC, %struct.H2645SEIUnregistered, %struct.H2645SEIFramePacking, %struct.H2645SEIDisplayOrientation, %struct.H2645SEIAlternativeTransfer, %struct.H2645SEIAmbientViewingEnvironment, %struct.H2645SEIMasteringDisplay, %struct.H2645SEIContentLight, %struct.AVFilmGrainAFGS1Params, ptr }
%struct.H2645SEIA53Caption = type { ptr }
%struct.H2645SEIAFD = type { i32, i8 }
%struct.HEVCSEIDynamicHDRPlus = type { ptr }
%struct.HEVCSEIDynamicHDRVivid = type { ptr }
%struct.HEVCSEILCEVC = type { ptr }
%struct.H2645SEIUnregistered = type { ptr, i32, i32 }
%struct.H2645SEIFramePacking = type { i32, i32, i32, i32, i32, i32, i32, i32 }
%struct.H2645SEIDisplayOrientation = type { i32, i32, i32, i32 }
%struct.H2645SEIAlternativeTransfer = type { i32, i32 }
%struct.H2645SEIAmbientViewingEnvironment = type { i32, i32, i16, i16 }
%struct.H2645SEIMasteringDisplay = type { i32, [3 x [2 x i16]], [2 x i16], i32, i32 }
%struct.H2645SEIContentLight = type { i32, i16, i16 }
%struct.AVFilmGrainAFGS1Params = type { i32, [8 x ptr] }
%struct.H264SEIPictureTiming = type { [40 x i8], i32, i32, i32, i32, i32, i32, [3 x %struct.H264SEITimeCode], i32 }
%struct.H264SEITimeCode = type { i32, i32, i32, i32, i32, i32 }
%struct.H264SEIRecoveryPoint = type { i32 }
%struct.H264SEIBufferingPeriod = type { i32, [32 x i32] }
%struct.H264SEIGreenMetaData = type { i8, i8, i16, i16, i8, i8, i8, i8, i8, i16 }
%struct.AVPixFmtDescriptor = type { ptr, i8, i8, i8, i64, [4 x %struct.AVComponentDescriptor], ptr }
%struct.AVComponentDescriptor = type { i32, i32, i32, i32, i32 }
%struct.AVFrame = type { [8 x ptr], [8 x i32], ptr, i32, i32, i32, i32, i32, %struct.AVRational, i64, i64, %struct.AVRational, i32, ptr, i32, i32, [8 x ptr], ptr, i32, ptr, i32, i32, i32, i32, i32, i32, i32, i64, ptr, i32, ptr, ptr, i64, i64, i64, i64, ptr, %struct.AVChannelLayout, i64 }

; Function Attrs: nounwind uwtable
define void @ff_h264_draw_horiz_band(ptr noundef %0, ptr noundef %1, i32 noundef %2, i32 noundef %3) #0 {
  %5 = alloca ptr, align 8
  %6 = alloca ptr, align 8
  %7 = alloca i32, align 4
  %8 = alloca i32, align 4
  %9 = alloca ptr, align 8
  %10 = alloca ptr, align 8
  %11 = alloca ptr, align 8
  %12 = alloca [8 x i32], align 16
  %13 = alloca i32, align 4
  %14 = alloca i32, align 4
  %15 = alloca i32, align 4
  %16 = alloca i32, align 4
  store ptr %0, ptr %5, align 8, !tbaa !29
  store ptr %1, ptr %6, align 8, !tbaa !82
  store i32 %2, ptr %7, align 4, !tbaa !83
  store i32 %3, ptr %8, align 4, !tbaa !83
  call void @llvm.lifetime.start.p0(i64 8, ptr %9) #11
  %17 = load ptr, ptr %5, align 8, !tbaa !29
  %18 = getelementptr inbounds nuw %struct.H264Context, ptr %17, i32 0, i32 1
  %19 = load ptr, ptr %18, align 8, !tbaa !84
  store ptr %19, ptr %9, align 8, !tbaa !4
  call void @llvm.lifetime.start.p0(i64 8, ptr %10) #11
  %20 = load ptr, ptr %5, align 8, !tbaa !29
  %21 = getelementptr inbounds nuw %struct.H264Context, ptr %20, i32 0, i32 9
  %22 = getelementptr inbounds nuw %struct.H264Picture, ptr %21, i32 0, i32 0
  %23 = load ptr, ptr %22, align 8, !tbaa !85
  store ptr %23, ptr %10, align 8, !tbaa !86
  call void @llvm.lifetime.start.p0(i64 8, ptr %11) #11
  call void @llvm.lifetime.start.p0(i64 32, ptr %12) #11
  call void @llvm.lifetime.start.p0(i64 4, ptr %13) #11
  call void @llvm.lifetime.start.p0(i64 4, ptr %14) #11
  %24 = load ptr, ptr %5, align 8, !tbaa !29
  %25 = getelementptr inbounds nuw %struct.H264Context, ptr %24, i32 0, i32 41
  %26 = load i32, ptr %25, align 4, !tbaa !87
  %27 = icmp ne i32 %26, 3
  %28 = zext i1 %27 to i32
  store i32 %28, ptr %14, align 4, !tbaa !83
  %29 = load ptr, ptr %9, align 8, !tbaa !4
  %30 = getelementptr inbounds nuw %struct.AVCodecContext, ptr %29, i32 0, i32 34
  %31 = load ptr, ptr %30, align 8, !tbaa !88
  %32 = icmp ne ptr %31, null
  br i1 %32, label %34, label %33

33:                                               ; preds = %4
  store i32 1, ptr %15, align 4
  br label %126

34:                                               ; preds = %4
  %35 = load i32, ptr %14, align 4, !tbaa !83
  %36 = icmp ne i32 %35, 0
  br i1 %36, label %37, label %49

37:                                               ; preds = %34
  %38 = load ptr, ptr %5, align 8, !tbaa !29
  %39 = getelementptr inbounds nuw %struct.H264Context, ptr %38, i32 0, i32 42
  %40 = load i32, ptr %39, align 8, !tbaa !89
  %41 = icmp ne i32 %40, 0
  br i1 %41, label %42, label %49

42:                                               ; preds = %37
  %43 = load ptr, ptr %9, align 8, !tbaa !4
  %44 = getelementptr inbounds nuw %struct.AVCodecContext, ptr %43, i32 0, i32 33
  %45 = load i32, ptr %44, align 8, !tbaa !90
  %46 = and i32 %45, 2
  %47 = icmp ne i32 %46, 0
  br i1 %47, label %49, label %48

48:                                               ; preds = %42
  store i32 1, ptr %15, align 4
  br label %126

49:                                               ; preds = %42, %37, %34
  %50 = load i32, ptr %14, align 4, !tbaa !83
  %51 = icmp ne i32 %50, 0
  br i1 %51, label %52, label %57

52:                                               ; preds = %49
  %53 = load i32, ptr %8, align 4, !tbaa !83
  %54 = shl i32 %53, 1
  store i32 %54, ptr %8, align 4, !tbaa !83
  %55 = load i32, ptr %7, align 4, !tbaa !83
  %56 = shl i32 %55, 1
  store i32 %56, ptr %7, align 4, !tbaa !83
  br label %57

57:                                               ; preds = %52, %49
  %58 = load i32, ptr %8, align 4, !tbaa !83
  %59 = load ptr, ptr %9, align 8, !tbaa !4
  %60 = getelementptr inbounds nuw %struct.AVCodecContext, ptr %59, i32 0, i32 19
  %61 = load i32, ptr %60, align 4, !tbaa !91
  %62 = load i32, ptr %7, align 4, !tbaa !83
  %63 = sub nsw i32 %61, %62
  %64 = icmp sgt i32 %58, %63
  br i1 %64, label %65, label %71

65:                                               ; preds = %57
  %66 = load ptr, ptr %9, align 8, !tbaa !4
  %67 = getelementptr inbounds nuw %struct.AVCodecContext, ptr %66, i32 0, i32 19
  %68 = load i32, ptr %67, align 4, !tbaa !91
  %69 = load i32, ptr %7, align 4, !tbaa !83
  %70 = sub nsw i32 %68, %69
  br label %73

71:                                               ; preds = %57
  %72 = load i32, ptr %8, align 4, !tbaa !83
  br label %73

73:                                               ; preds = %71, %65
  %74 = phi i32 [ %70, %65 ], [ %72, %71 ]
  store i32 %74, ptr %8, align 4, !tbaa !83
  %75 = load ptr, ptr %9, align 8, !tbaa !4
  %76 = getelementptr inbounds nuw %struct.AVCodecContext, ptr %75, i32 0, i32 23
  %77 = load i32, ptr %76, align 8, !tbaa !92
  %78 = call ptr @av_pix_fmt_desc_get(i32 noundef %77)
  store ptr %78, ptr %11, align 8, !tbaa !93
  %79 = load ptr, ptr %11, align 8, !tbaa !93
  %80 = getelementptr inbounds nuw %struct.AVPixFmtDescriptor, ptr %79, i32 0, i32 3
  %81 = load i8, ptr %80, align 2, !tbaa !95
  %82 = zext i8 %81 to i32
  store i32 %82, ptr %13, align 4, !tbaa !83
  %83 = load i32, ptr %7, align 4, !tbaa !83
  %84 = load ptr, ptr %10, align 8, !tbaa !86
  %85 = getelementptr inbounds nuw %struct.AVFrame, ptr %84, i32 0, i32 1
  %86 = getelementptr inbounds [8 x i32], ptr %85, i64 0, i64 0
  %87 = load i32, ptr %86, align 8, !tbaa !83
  %88 = mul nsw i32 %83, %87
  %89 = getelementptr inbounds [8 x i32], ptr %12, i64 0, i64 0
  store i32 %88, ptr %89, align 16, !tbaa !83
  %90 = load i32, ptr %7, align 4, !tbaa !83
  %91 = load i32, ptr %13, align 4, !tbaa !83
  %92 = ashr i32 %90, %91
  %93 = load ptr, ptr %10, align 8, !tbaa !86
  %94 = getelementptr inbounds nuw %struct.AVFrame, ptr %93, i32 0, i32 1
  %95 = getelementptr inbounds [8 x i32], ptr %94, i64 0, i64 1
  %96 = load i32, ptr %95, align 4, !tbaa !83
  %97 = mul nsw i32 %92, %96
  %98 = getelementptr inbounds [8 x i32], ptr %12, i64 0, i64 2
  store i32 %97, ptr %98, align 8, !tbaa !83
  %99 = getelementptr inbounds [8 x i32], ptr %12, i64 0, i64 1
  store i32 %97, ptr %99, align 4, !tbaa !83
  call void @llvm.lifetime.start.p0(i64 4, ptr %16) #11
  store i32 3, ptr %16, align 4, !tbaa !83
  br label %100

100:                                              ; preds = %108, %73
  %101 = load i32, ptr %16, align 4, !tbaa !83
  %102 = icmp slt i32 %101, 8
  br i1 %102, label %104, label %103

103:                                              ; preds = %100
  store i32 2, ptr %15, align 4
  call void @llvm.lifetime.end.p0(i64 4, ptr %16) #11
  br label %111

104:                                              ; preds = %100
  %105 = load i32, ptr %16, align 4, !tbaa !83
  %106 = sext i32 %105 to i64
  %107 = getelementptr inbounds [8 x i32], ptr %12, i64 0, i64 %106
  store i32 0, ptr %107, align 4, !tbaa !83
  br label %108

108:                                              ; preds = %104
  %109 = load i32, ptr %16, align 4, !tbaa !83
  %110 = add nsw i32 %109, 1
  store i32 %110, ptr %16, align 4, !tbaa !83
  br label %100, !llvm.loop !97

111:                                              ; preds = %103
  br label %112

112:                                              ; preds = %111
  br label %113

113:                                              ; preds = %112
  br label %114

114:                                              ; preds = %113
  %115 = load ptr, ptr %9, align 8, !tbaa !4
  %116 = getelementptr inbounds nuw %struct.AVCodecContext, ptr %115, i32 0, i32 34
  %117 = load ptr, ptr %116, align 8, !tbaa !88
  %118 = load ptr, ptr %9, align 8, !tbaa !4
  %119 = load ptr, ptr %10, align 8, !tbaa !86
  %120 = getelementptr inbounds [8 x i32], ptr %12, i64 0, i64 0
  %121 = load i32, ptr %7, align 4, !tbaa !83
  %122 = load ptr, ptr %5, align 8, !tbaa !29
  %123 = getelementptr inbounds nuw %struct.H264Context, ptr %122, i32 0, i32 41
  %124 = load i32, ptr %123, align 4, !tbaa !87
  %125 = load i32, ptr %8, align 4, !tbaa !83
  call void %117(ptr noundef %118, ptr noundef %119, ptr noundef %120, i32 noundef %121, i32 noundef %124, i32 noundef %125)
  store i32 0, ptr %15, align 4
  br label %126

126:                                              ; preds = %114, %48, %33
  call void @llvm.lifetime.end.p0(i64 4, ptr %14) #11
  call void @llvm.lifetime.end.p0(i64 4, ptr %13) #11
  call void @llvm.lifetime.end.p0(i64 32, ptr %12) #11
  call void @llvm.lifetime.end.p0(i64 8, ptr %11) #11
  call void @llvm.lifetime.end.p0(i64 8, ptr %10) #11
  call void @llvm.lifetime.end.p0(i64 8, ptr %9) #11
  %127 = load i32, ptr %15, align 4
  switch i32 %127, label %129 [
    i32 0, label %128
    i32 1, label %128
  ]

128:                                              ; preds = %126, %126
  ret void

129:                                              ; preds = %126
  unreachable
}