; Function Attrs: nounwind uwtable
define void @ff_h264_draw_horiz_band(ptr noundef readonly captures(none) %0, ptr noundef readnone captures(none) %1, i32 noundef %2, i32 noundef %3) local_unnamed_addr #2 {
  %5 = alloca [8 x i32], align 16
  %6 = getelementptr inbounds nuw i8, ptr %0, i64 8
  %7 = load ptr, ptr %6, align 8, !tbaa !79
  %8 = getelementptr inbounds nuw i8, ptr %0, i64 729208
  %9 = load ptr, ptr %8, align 8, !tbaa !80
  call void @llvm.lifetime.start.p0(i64 32, ptr nonnull %5) #11
  %10 = getelementptr inbounds nuw i8, ptr %0, i64 731772
  %11 = getelementptr inbounds nuw i8, ptr %7, i64 184
  %12 = load ptr, ptr %11, align 8, !tbaa !81
  %.not34 = icmp eq ptr %12, null
  br i1 %.not34, label %45, label %13

13:                                               ; preds = %4
  %14 = load i32, ptr %10, align 4, !tbaa !82
  %.not = icmp eq i32 %14, 3
  br i1 %.not, label %.critedge, label %15

15:                                               ; preds = %13
  %16 = getelementptr inbounds nuw i8, ptr %0, i64 731776
  %17 = load i32, ptr %16, align 8, !tbaa !83
  %.not35 = icmp eq i32 %17, 0
  br i1 %.not35, label %22, label %18

18:                                               ; preds = %15
  %19 = getelementptr inbounds nuw i8, ptr %7, i64 176
  %20 = load i32, ptr %19, align 8, !tbaa !84
  %21 = and i32 %20, 2
  %.not36 = icmp eq i32 %21, 0
  br i1 %.not36, label %45, label %22

22:                                               ; preds = %15, %18
  %23 = shl i32 %3, 1
  %24 = shl i32 %2, 1
  br label %.critedge

.critedge:                                        ; preds = %13, %22
  %.032 = phi i32 [ %23, %22 ], [ %3, %13 ]
  %.031 = phi i32 [ %24, %22 ], [ %2, %13 ]
  %25 = getelementptr inbounds nuw i8, ptr %7, i64 116
  %26 = load i32, ptr %25, align 4, !tbaa !85
  %27 = getelementptr inbounds nuw i8, ptr %7, i64 136
  %28 = load i32, ptr %27, align 8, !tbaa !86
  %29 = tail call ptr @av_pix_fmt_desc_get(i32 noundef %28) #11
  %30 = getelementptr inbounds nuw i8, ptr %29, i64 10
  %31 = load i8, ptr %30, align 2, !tbaa !87
  %32 = zext nneg i8 %31 to i32
  %33 = getelementptr inbounds nuw i8, ptr %9, i64 64
  %34 = load i32, ptr %33, align 8, !tbaa !89
  %35 = mul nsw i32 %34, %.031
  store i32 %35, ptr %5, align 16, !tbaa !89
  %36 = ashr i32 %.031, %32
  %37 = getelementptr inbounds nuw i8, ptr %9, i64 68
  %38 = load i32, ptr %37, align 4, !tbaa !89
  %39 = mul nsw i32 %38, %36
  %40 = getelementptr inbounds nuw i8, ptr %5, i64 8
  store i32 %39, ptr %40, align 8, !tbaa !89
  %41 = getelementptr inbounds nuw i8, ptr %5, i64 4
  store i32 %39, ptr %41, align 4, !tbaa !89
  %scevgep = getelementptr inbounds nuw i8, ptr %5, i64 12
  call void @llvm.memset.p0.i64(ptr noundef nonnull align 4 dereferenceable(20) %scevgep, i8 0, i64 20, i1 false), !tbaa !89
  %42 = sub nsw i32 %26, %.031
  %..032 = tail call i32 @llvm.smin.i32(i32 %.032, i32 %42)
  %43 = load ptr, ptr %11, align 8, !tbaa !81
  %44 = load i32, ptr %10, align 4, !tbaa !82
  call void %43(ptr noundef nonnull %7, ptr noundef %9, ptr noundef nonnull %5, i32 noundef %.031, i32 noundef %44, i32 noundef %..032) #11
  br label %45

45:                                               ; preds = %18, %4, %.critedge
  call void @llvm.lifetime.end.p0(i64 32, ptr nonnull %5) #11
  ret void
}